target datalayout = "e-m:e-p270:32:32-p271:32:32-p272:64:64-i64:64-i128:128-f80:128-n8:16:32:64-S128"
target triple = "x86_64-pc-linux-gnu"

%struct.URLContext = type { ptr, ptr, ptr, ptr, i32, i32, i32, i32, %struct.AVIOInterruptCB, i64, ptr, ptr, i32 }
%struct.AVIOInterruptCB = type { ptr, ptr }
%struct.UnixContext = type { ptr, %struct.sockaddr_un, i32, i32, i32, i32 }
%struct.sockaddr_un = type { i16, [108 x i8] }

; Function Attrs: nounwind uwtable
define internal i32 @unix_read(ptr noundef %0, ptr noundef %1, i32 noundef %2) #0 {
  %4 = alloca i32, align 4
  %5 = alloca ptr, align 8
  %6 = alloca ptr, align 8
  %7 = alloca i32, align 4
  %8 = alloca ptr, align 8
  %9 = alloca i32, align 4
  %10 = alloca i32, align 4
  store ptr %0, ptr %5, align 8, !tbaa !4
  store ptr %1, ptr %6, align 8, !tbaa !9
  store i32 %2, ptr %7, align 4, !tbaa !11
  call void @llvm.lifetime.start.p0(i64 8, ptr %8) #5
  %11 = load ptr, ptr %5, align 8, !tbaa !4
  %12 = getelementptr inbounds nuw %struct.URLContext, ptr %11, i32 0, i32 2
  %13 = load ptr, ptr %12, align 8, !tbaa !13
  store ptr %13, ptr %8, align 8, !tbaa !19
  call void @llvm.lifetime.start.p0(i64 4, ptr %9) #5
  %14 = load ptr, ptr %5, align 8, !tbaa !4
  %15 = getelementptr inbounds nuw %struct.URLContext, ptr %14, i32 0, i32 4
  %16 = load i32, ptr %15, align 8, !tbaa !31
  %17 = and i32 %16, 8
  %18 = icmp ne i32 %17, 0
  br i1 %18, label %29, label %19

19:                                               ; preds = %3
  %20 = load ptr, ptr %8, align 8, !tbaa !19
  %21 = getelementptr inbounds nuw %struct.UnixContext, ptr %20, i32 0, i32 5
  %22 = load i32, ptr %21, align 4, !tbaa !29
  %23 = call i32 @ff_network_wait_fd(i32 noundef %22, i32 noundef 0)
  store i32 %23, ptr %9, align 4, !tbaa !11
  %24 = load i32, ptr %9, align 4, !tbaa !11
  %25 = icmp slt i32 %24, 0
  br i1 %25, label %26, label %28

26:                                               ; preds = %19
  %27 = load i32, ptr %9, align 4, !tbaa !11
  store i32 %27, ptr %4, align 4
  store i32 1, ptr %10, align 4
  br label %57

28:                                               ; preds = %19
  br label %29

29:                                               ; preds = %28, %3
  %30 = load ptr, ptr %8, align 8, !tbaa !19
  %31 = getelementptr inbounds nuw %struct.UnixContext, ptr %30, i32 0, i32 5
  %32 = load i32, ptr %31, align 4, !tbaa !29
  %33 = load ptr, ptr %6, align 8, !tbaa !9
  %34 = load i32, ptr %7, align 4, !tbaa !11
  %35 = sext i32 %34 to i64
  %36 = call i64 @recv(i32 noundef %32, ptr noundef %33, i64 noundef %35, i32 noundef 0)
  %37 = trunc i64 %36 to i32
  store i32 %37, ptr %9, align 4, !tbaa !11
  %38 = load i32, ptr %9, align 4, !tbaa !11
  %39 = icmp ne i32 %38, 0
  br i1 %39, label %46, label %40

40:                                               ; preds = %29
  %41 = load ptr, ptr %8, align 8, !tbaa !19
  %42 = getelementptr inbounds nuw %struct.UnixContext, ptr %41, i32 0, i32 4
  %43 = load i32, ptr %42, align 8, !tbaa !25
  %44 = icmp eq i32 %43, 1
  br i1 %44, label %45, label %46

45:                                               ; preds = %40
  store i32 -541478725, ptr %4, align 4
  store i32 1, ptr %10, align 4
  br label %57

46:                                               ; preds = %40, %29
  %47 = load i32, ptr %9, align 4, !tbaa !11
  %48 = icmp slt i32 %47, 0
  br i1 %48, label %49, label %53

49:                                               ; preds = %46
  %50 = call ptr @__errno_location() #6
  %51 = load i32, ptr %50, align 4, !tbaa !11
  %52 = sub nsw i32 0, %51
  br label %55

53:                                               ; preds = %46
  %54 = load i32, ptr %9, align 4, !tbaa !11
  br label %55

55:                                               ; preds = %53, %49
  %56 = phi i32 [ %52, %49 ], [ %54, %53 ]
  store i32 %56, ptr %4, align 4
  store i32 1, ptr %10, align 4
  br label %57

57:                                               ; preds = %55, %45, %26
  call void @llvm.lifetime.end.p0(i64 4, ptr %9) #5
  call void @llvm.lifetime.end.p0(i64 8, ptr %8) #5
  %58 = load i32, ptr %4, align 4
  ret i32 %58
}