; Function Attrs: nounwind uwtable
define internal i32 @unix_read(ptr noundef readonly captures(none) %0, ptr noundef %1, i32 noundef %2) #0 {
  %4 = getelementptr inbounds nuw i8, ptr %0, i64 16
  %5 = load ptr, ptr %4, align 8, !tbaa !9
  %6 = getelementptr inbounds nuw i8, ptr %0, i64 32
  %7 = load i32, ptr %6, align 8, !tbaa !27
  %8 = and i32 %7, 8
  %.not = icmp eq i32 %8, 0
  br i1 %.not, label %9, label %14

9:                                                ; preds = %3
  %10 = getelementptr inbounds nuw i8, ptr %5, i64 132
  %11 = load i32, ptr %10, align 4, !tbaa !25
  %12 = tail call i32 @ff_network_wait_fd(i32 noundef %11, i32 noundef 0) #5
  %13 = icmp slt i32 %12, 0
  br i1 %13, label %.thread, label %14

14:                                               ; preds = %9, %3
  %15 = getelementptr inbounds nuw i8, ptr %5, i64 132
  %16 = load i32, ptr %15, align 4, !tbaa !25
  %17 = sext i32 %2 to i64
  %18 = tail call i64 @recv(i32 noundef %16, ptr noundef %1, i64 noundef %17, i32 noundef 0) #5
  %19 = trunc i64 %18 to i32
  %.not14 = icmp eq i32 %19, 0
  br i1 %.not14, label %20, label %24

20:                                               ; preds = %14
  %21 = getelementptr inbounds nuw i8, ptr %5, i64 128
  %22 = load i32, ptr %21, align 8, !tbaa !20
  %23 = icmp eq i32 %22, 1
  %spec.select = select i1 %23, i32 -541478725, i32 0
  br label %.thread

24:                                               ; preds = %14
  %25 = icmp slt i32 %19, 0
  br i1 %25, label %26, label %.thread

26:                                               ; preds = %24
  %27 = tail call ptr @__errno_location() #6
  %28 = load i32, ptr %27, align 4, !tbaa !21
  %29 = sub nsw i32 0, %28
  br label %.thread

.thread:                                          ; preds = %20, %26, %24, %9
  %.0 = phi i32 [ %12, %9 ], [ %29, %26 ], [ %19, %24 ], [ %spec.select, %20 ]
  ret i32 %.0
}